; Function Attrs: mustprogress nofree norecurse nosync nounwind willreturn memory(read, inaccessiblemem: none) uwtable
define noundef nonnull align 8 dereferenceable(8) ptr @_ZNK32pxrInternal_v0_24__pxrReserved__10PcpNodeRef12GetMapToRootEv(ptr noundef nonnull readonly align 8 captures(none) dereferenceable(16) %0) local_unnamed_addr #3 align 2 {
  %2 = load ptr, ptr %0, align 8
  %3 = getelementptr inbounds nuw i8, ptr %0, i64 8
  %4 = load i64, ptr %3, align 8
  %5 = getelementptr inbounds nuw i8, ptr %2, i64 16
  %6 = load ptr, ptr %5, align 8
  %7 = load ptr, ptr %6, align 8
  %8 = getelementptr inbounds %"struct.pxrInternal_v0_24__pxrReserved__::PcpPrimIndex_Graph::_Node", ptr %7, i64 %4, i32 1
  ret ptr %8
}